target datalayout = "e-m:e-p270:32:32-p271:32:32-p272:64:64-i64:64-i128:128-f80:128-n8:16:32:64-S128"
target triple = "x86_64-pc-linux-gnu"

%"class.std::locale::id" = type { i64 }
%"class.std::locale" = type { ptr }
%"class.std::locale::_Impl" = type { i32, ptr, i64, ptr, ptr }

@_ZNSt7codecvtIDsc11__mbstate_tE2idE = external global %"class.std::locale::id", align 8
@_ZTINSt6locale5facetE = external constant ptr
@_ZTISt7codecvtIDsc11__mbstate_tE = external constant ptr

; Function Attrs: mustprogress uwtable
define linkonce_odr hidden noundef nonnull align 8 dereferenceable(12) ptr @_ZSt9use_facetISt7codecvtIDsc11__mbstate_tEERKT_RKSt6locale(ptr noundef nonnull align 8 dereferenceable(8) %0) #3 comdat {
  %2 = alloca ptr, align 8
  %3 = alloca i64, align 8
  %4 = alloca ptr, align 8
  store ptr %0, ptr %2, align 8, !tbaa !3
  call void @llvm.lifetime.start.p0(i64 8, ptr %3) #16
  %5 = call noundef i64 @_ZNKSt6locale2id5_M_idEv(ptr noundef nonnull align 8 dereferenceable(8) @_ZNSt7codecvtIDsc11__mbstate_tE2idE) #16
  store i64 %5, ptr %3, align 8, !tbaa !7
  call void @llvm.lifetime.start.p0(i64 8, ptr %4) #16
  %6 = load ptr, ptr %2, align 8, !tbaa !3
  %7 = getelementptr inbounds nuw %"class.std::locale", ptr %6, i32 0, i32 0
  %8 = load ptr, ptr %7, align 8, !tbaa !15
  %9 = getelementptr inbounds nuw %"class.std::locale::_Impl", ptr %8, i32 0, i32 1
  %10 = load ptr, ptr %9, align 8, !tbaa !17
  store ptr %10, ptr %4, align 8, !tbaa !3
  %11 = load i64, ptr %3, align 8, !tbaa !7
  %12 = load ptr, ptr %2, align 8, !tbaa !3
  %13 = getelementptr inbounds nuw %"class.std::locale", ptr %12, i32 0, i32 0
  %14 = load ptr, ptr %13, align 8, !tbaa !15
  %15 = getelementptr inbounds nuw %"class.std::locale::_Impl", ptr %14, i32 0, i32 2
  %16 = load i64, ptr %15, align 8, !tbaa !20
  %17 = icmp uge i64 %11, %16
  br i1 %17, label %24, label %18

18:                                               ; preds = %1
  %19 = load ptr, ptr %4, align 8, !tbaa !3
  %20 = load i64, ptr %3, align 8, !tbaa !7
  %21 = getelementptr inbounds nuw ptr, ptr %19, i64 %20
  %22 = load ptr, ptr %21, align 8, !tbaa !3
  %23 = icmp ne ptr %22, null
  br i1 %23, label %25, label %24

24:                                               ; preds = %18, %1
  call void @_ZSt16__throw_bad_castv() #18
  unreachable

25:                                               ; preds = %18
  %26 = load ptr, ptr %4, align 8, !tbaa !3
  %27 = load i64, ptr %3, align 8, !tbaa !7
  %28 = getelementptr inbounds nuw ptr, ptr %26, i64 %27
  %29 = load ptr, ptr %28, align 8, !tbaa !3
  %30 = call ptr @__dynamic_cast(ptr %29, ptr @_ZTINSt6locale5facetE, ptr @_ZTISt7codecvtIDsc11__mbstate_tE, i64 0) #16
  %31 = icmp eq ptr %30, null
  br i1 %31, label %32, label %33

32:                                               ; preds = %25
  call void @__cxa_bad_cast() #18
  unreachable

33:                                               ; preds = %25
  call void @llvm.lifetime.end.p0(i64 8, ptr %4) #16
  call void @llvm.lifetime.end.p0(i64 8, ptr %3) #16
  ret ptr %30
}

; Function Attrs: mustprogress uwtable
define noundef zeroext i1 @_ZN5boost3log11v2_mt_posix3aux17code_convert_implEPKDsmRNSt7__cxx1112basic_stringIcSt11char_traitsIcESaIcEEEmRKSt6locale(ptr noundef %0, i64 noundef %1, ptr noundef nonnull align 8 dereferenceable(32) %2, i64 noundef %3, ptr noundef nonnull align 8 dereferenceable(8) %4) #3 {
  %6 = alloca ptr, align 8
  %7 = alloca i64, align 8
  %8 = alloca ptr, align 8
  %9 = alloca i64, align 8
  %10 = alloca ptr, align 8
  store ptr %0, ptr %6, align 8, !tbaa !3
  store i64 %1, ptr %7, align 8, !tbaa !7
  store ptr %2, ptr %8, align 8, !tbaa !3
  store i64 %3, ptr %9, align 8, !tbaa !7
  store ptr %4, ptr %10, align 8, !tbaa !3
  %11 = load ptr, ptr %6, align 8, !tbaa !3
  %12 = load ptr, ptr %6, align 8, !tbaa !3
  %13 = load i64, ptr %7, align 8, !tbaa !7
  %14 = getelementptr inbounds nuw i16, ptr %12, i64 %13
  %15 = load ptr, ptr %8, align 8, !tbaa !3
  %16 = load i64, ptr %9, align 8, !tbaa !7
  %17 = load ptr, ptr %10, align 8, !tbaa !3
  %18 = call noundef nonnull align 8 dereferenceable(12) ptr @_ZSt9use_facetISt7codecvtIDsc11__mbstate_tEERKT_RKSt6locale(ptr noundef nonnull align 8 dereferenceable(8) %17)
  %19 = call noundef i64 @_ZN5boost3log11v2_mt_posix3aux12code_convertIDscSt7codecvtIDsc11__mbstate_tEEEmPKT_S9_RNSt7__cxx1112basic_stringIT0_St11char_traitsISC_ESaISC_EEEmRKT1_(ptr noundef %11, ptr noundef %14, ptr noundef nonnull align 8 dereferenceable(32) %15, i64 noundef %16, ptr noundef nonnull align 8 dereferenceable(12) %18)
  %20 = load i64, ptr %7, align 8, !tbaa !7
  %21 = icmp eq i64 %19, %20
  ret i1 %21
}